; Function Attrs: nounwind uwtable
define internal noundef i32 @OnUpdateBacktrackLimit(ptr noundef %0, ptr noundef %1, ptr noundef %2, ptr noundef %3, ptr noundef %4, i32 noundef %5) #0 {
  %7 = tail call i32 @OnUpdateLong(ptr noundef %0, ptr noundef %1, ptr noundef %2, ptr noundef %3, ptr noundef %4, i32 noundef %5) #24
  %8 = load ptr, ptr @mctx, align 8, !tbaa !94
  %.not = icmp eq ptr %8, null
  br i1 %.not, label %13, label %9

9:                                                ; preds = %6
  %10 = load i64, ptr getelementptr inbounds nuw (i8, ptr @pcre_globals, i64 56), align 8, !tbaa !126
  %11 = trunc i64 %10 to i32
  %12 = tail call i32 @php_pcre2_set_match_limit(ptr noundef nonnull %8, i32 noundef %11) #24
  br label %13

13:                                               ; preds = %9, %6
  ret i32 0
}